(dp0
S'METTS MARK'
p1
(dp2
S'salary'
p3
F365788.0
sS'to_messages'
p4
F807.0
sS'total_payments'
p5
F1061827.0
sS'bonus'
p6
F600000.0
sS'restricted_stock'
p7
F585062.0
sS'total_worth'
p8
F6157298.257425742
sS'total_stock_value'
p9
F585062.0
sS'shared_receipt_with_poi'
p10
F702.0
sS'poi_contact_ratio1'
p11
F0.0012391573729863693
sS'exercised_stock_options'
p12
F2959559.2574257427
sS'from_messages'
p13
F29.0
sS'other'
p14
F1740.0
sS'from_this_person_to_poi'
p15
F1.0
sS'poi'
p16
I00
sS'exp/net'
p17
F0.015314996295051127
sS'expenses'
p18
F94299.0
sS'email_address'
p19
S'mark.metts@enron.com'
p20
sS'from_poi_to_this_person'
p21
F38.0
sS'poi_contact_ratio2'
p22
F1.3103448275862069
ssS'BAXTER JOHN C'
p23
(dp24
g3
F267102.0
sg4
F2073.860465116279
sg5
F5634343.0
sg6
F1200000.0
sg7
F3942714.0
sg8
F28347961.0
sg9
F10623258.0
sg10
F1176.4651162790697
sg11
F0.01988203103974163
sg12
F6680544.0
sg13
F608.7906976744187
sg14
F2660303.0
sg15
F41.23255813953488
sg16
I00
sg17
F0.00039509014422589334
sg18
F11200.0
sg19
Fnan
sg21
F64.8953488372093
sg22
F0.10659714263885704
ssS'ELLIOTT STEVEN'
p25
(dp26
g3
F170941.0
sg4
F2073.860465116279
sg5
F211725.0
sg6
F350000.0
sg7
F1788391.0
sg8
F14090136.0
sg9
F6678735.0
sg10
F1176.4651162790697
sg11
F0.01988203103974163
sg12
F4890344.0
sg13
F608.7906976744187
sg14
F12961.0
sg15
F41.23255813953488
sg16
I00
sg17
F0.005574963932214707
sg18
F78552.0
sg19
S'steven.elliott@enron.com'
p27
sg21
F64.8953488372093
sg22
F0.10659714263885704
ssS'CORDES WILLIAM R'
p28
(dp29
g3
F284087.5425531915
sg4
F764.0
sg5
F2623421.1774193547
sg6
F1201773.0740740742
sg7
F386335.0
sg8
F6185651.79404662
sg9
F1038185.0
sg10
F58.0
sg11
F0.0
sg12
F651850.0
sg13
F12.0
sg14
F465276.6630434783
sg15
F0.0
sg16
I00
sg17
F0.008760921636496733
sg18
F54192.01063829787
sg19
S'bill.cordes@enron.com'
p30
sg21
F10.0
sg22
F0.8333333333333334
ssS'HANNON KEVIN P'
p31
(dp32
g3
F243293.0
sg4
F1045.0
sg5
F288682.0
sg6
F1500000.0
sg7
F853064.0
sg8
F14814105.0
sg9
F6391065.0
sg10
F1035.0
sg11
F0.020095693779904306
sg12
F5538001.0
sg13
F32.0
sg14
F11350.0
sg15
F21.0
sg16
I01
sg17
F0.0022977425905918716
sg18
F34039.0
sg19
S'kevin.hannon@enron.com'
p33
sg21
F32.0
sg22
F1.0
ssS'MORDAUNT KRISTINA M'
p34
(dp35
g3
F267093.0
sg4
F2073.860465116279
sg5
F628522.0
sg6
F325000.0
sg7
F208510.0
sg8
F4597194.257425742
sg9
F208510.0
sg10
F1176.4651162790697
sg11
F0.01988203103974163
sg12
F2959559.2574257427
sg13
F608.7906976744187
sg14
F1411.0
sg15
F41.23255813953488
sg16
I00
sg17
F0.007617254794799291
sg18
F35018.0
sg19
S'kristina.mordaunt@enron.com'
p36
sg21
F64.8953488372093
sg22
F0.10659714263885704
ssS'MEYER ROCKFORD G'
p37
(dp38
g3
F284087.5425531915
sg4
F232.0
sg5
F1848227.0
sg6
F1201773.0740740742
sg7
F462384.0
sg8
F5245833.616627266
sg9
F955873.0
sg10
F22.0
sg11
F0.0
sg12
F493489.0
sg13
F28.0
sg14
F465276.6630434783
sg15
F0.0
sg16
I00
sg17
F0.010330485981585489
sg18
F54192.01063829787
sg19
S'rockford.meyer@enron.com'
p39
sg21
F0.0
sg22
F0.0
ssS'MCMAHON JEFFREY'
p40
(dp41
g3
F370448.0
sg4
F2355.0
sg5
F4099771.0
sg6
F2600000.0
sg7
F558801.0
sg8
F10395929.0
sg9
F1662855.0
sg10
F2228.0
sg11
F0.011040339702760084
sg12
F1104054.0
sg13
F48.0
sg14
F297353.0
sg15
F26.0
sg16
I00
sg17
F0.013188624123923893
sg18
F137108.0
sg19
S'jeffrey.mcmahon@enron.com'
p42
sg21
F58.0
sg22
F1.2083333333333333
ssS'HORTON STANLEY C'
p43
(dp44
g3
F284087.5425531915
sg4
F2350.0
sg5
F3131860.0
sg6
F1201773.0740740742
sg7
F2046079.0
sg8
F19131016.616627265
sg9
F7256648.0
sg10
F1074.0
sg11
F0.006382978723404255
sg12
F5210569.0
sg13
F1073.0
sg14
F465276.6630434783
sg15
F15.0
sg16
I00
sg17
F0.0028326780392422105
sg18
F54192.01063829787
sg19
S'stanley.horton@enron.com'
p45
sg21
F44.0
sg22
F0.04100652376514446
ssS'PIPER GREGORY F'
p46
(dp47
g3
F197091.0
sg4
F1238.0
sg5
F1737629.0
sg6
F400000.0
sg7
F409554.0
sg8
F4504854.0
sg9
F880290.0
sg10
F742.0
sg11
F0.03877221324717286
sg12
F880290.0
sg13
F222.0
sg14
F778.0
sg15
F48.0
sg16
I00
sg17
F0.009557912420691103
sg18
F43057.0
sg19
S'greg.piper@enron.com'
p48
sg21
F61.0
sg22
F0.2747747747747748
ssS'HUMPHREY GENE E'
p49
(dp50
g3
F130724.0
sg4
F128.0
sg5
F3100224.0
sg6
F1201773.0740740742
sg7
F1147424.0917431193
sg8
F10145681.165817194
sg9
F2282768.0
sg10
F119.0
sg11
F0.1328125
sg12
F2282768.0
sg13
F17.0
sg14
F465276.6630434783
sg15
F17.0
sg16
I00
sg17
F0.0004922291483814584
sg18
F4994.0
sg19
S'gene.humphrey@enron.com'
p51
sg21
F10.0
sg22
F0.5882352941176471
ssS'UMANOFF ADAM S'
p52
(dp53
g3
F288589.0
sg4
F111.0
sg5
F1130461.0
sg6
F788750.0
sg7
F1147424.0917431193
sg8
F9666856.373168861
sg9
F3352073.024
sg10
F41.0
sg11
F0.0
sg12
F2959559.2574257427
sg13
F18.0
sg14
F465276.6630434783
sg15
F0.0
sg16
I00
sg17
F0.005495271466683253
sg18
F53122.0
sg19
S'adam.umanoff@enron.com'
p54
sg21
F12.0
sg22
F0.6666666666666666
ssS'BLACHMAN JEREMY M'
p55
(dp56
g3
F248546.0
sg4
F2475.0
sg5
F2014835.0
sg6
F850000.0
sg7
F189041.0
sg8
F5022089.0
sg9
F954354.0
sg10
F2326.0
sg11
F0.0008080808080808081
sg12
F765313.0
sg13
F14.0
sg14
F272.0
sg15
F2.0
sg16
I00
sg17
F0.016767524430570627
sg18
F84208.0
sg19
S'jeremy.blachman@enron.com'
p57
sg21
F25.0
sg22
F1.7857142857142858
ssS'SUNDE MARTIN'
p58
(dp59
g3
F257486.0
sg4
F2647.0
sg5
F1545059.0
sg6
F700000.0
sg7
F698920.0
sg8
F6859944.257425742
sg9
F698920.0
sg10
F2565.0
sg11
F0.004911220249338874
sg12
F2959559.2574257427
sg13
F38.0
sg14
F111122.0
sg15
F13.0
sg16
I00
sg17
F0.007899774197091498
sg18
F54192.01063829787
sg19
S'marty.sunde@enron.com'
p60
sg21
F37.0
sg22
F0.9736842105263158
ssS'GIBBS DANA R'
p61
(dp62
g3
F284087.5425531915
sg4
F169.0
sg5
F966522.0
sg6
F1201773.0740740742
sg7
F1147424.0917431193
sg8
F8036356.708370385
sg9
F2218275.0
sg10
F23.0
sg11
F0.0
sg12
F2218275.0
sg13
F12.0
sg14
F465276.6630434783
sg15
F0.0
sg16
I00
sg17
F0.006743355553375747
sg18
F54192.01063829787
sg19
S'dana.gibbs@enron.com'
p63
sg21
F0.0
sg22
F0.0
ssS'LOWRY CHARLES P'
p64
(dp65
g3
F284087.5425531915
sg4
F2073.860465116279
sg5
F2623421.1774193547
sg6
F1201773.0740740742
sg7
F153686.0
sg8
F5007377.79404662
sg9
F372205.0
sg10
F1176.4651162790697
sg11
F0.01988203103974163
sg12
F372205.0
sg13
F608.7906976744187
sg14
F465276.6630434783
sg15
F41.23255813953488
sg16
I00
sg17
F0.010822432991320912
sg18
F54192.01063829787
sg19
Fnan
sg21
F64.8953488372093
sg22
F0.10659714263885704
ssS'COLWELL WESLEY'
p66
(dp67
g3
F288542.0
sg4
F1758.0
sg5
F1490344.0
sg6
F1200000.0
sg7
F698242.0
sg8
F7334929.257425742
sg9
F698242.0
sg10
F1132.0
sg11
F0.006257110352673493
sg12
F2959559.2574257427
sg13
F40.0
sg14
F101740.0
sg15
F11.0
sg16
I01
sg17
F0.00225141912354254
sg18
F16514.0
sg19
S'wes.colwell@enron.com'
p68
sg21
F240.0
sg22
F6.0
ssS'MULLER MARK S'
p69
(dp70
g3
F251654.0
sg4
F136.0
sg5
F3202070.0
sg6
F1100000.0
sg7
F360528.0
sg8
F7387420.0
sg9
F1416848.0
sg10
F114.0
sg11
F0.0
sg12
F1056320.0
sg13
F16.0
sg14
F947.0
sg15
F0.0
sg16
I00
sg17
F0.007335715397026008
sg18
F54192.01063829787
sg19
S's..muller@enron.com'
p71
sg21
F12.0
sg22
F0.75
ssS'JACKSON CHARLENE R'
p72
(dp73
g3
F288558.0
sg4
F258.0
sg5
F551174.0
sg6
F250000.0
sg7
F540672.0
sg8
F2541202.0
sg9
F725735.0
sg10
F117.0
sg11
F0.07364341085271318
sg12
F185063.0
sg13
F56.0
sg14
F2435.0
sg15
F19.0
sg16
I00
sg17
F0.004006371787838983
sg18
F10181.0
sg19
S'charlene.jackson@enron.com'
p74
sg21
F25.0
sg22
F0.44642857142857145
ssS'WESTFAHL RICHARD K'
p75
(dp76
g3
F63744.0
sg4
F2073.860465116279
sg5
F762135.0
sg6
F1201773.0740740742
sg7
F384930.0
sg8
F5757071.331499817
sg9
F384930.0
sg10
F1176.4651162790697
sg11
F0.01988203103974163
sg12
F2959559.2574257427
sg13
F608.7906976744187
sg14
F401130.0
sg15
F41.23255813953488
sg16
I00
sg17
F0.0090097893552566
sg18
F51870.0
sg19
S'dick.westfahl@enron.com'
p77
sg21
F64.8953488372093
sg22
F0.10659714263885704
ssS'WALTERS GARETH W'
p78
(dp79
g3
F284087.5425531915
sg4
F2073.860465116279
sg5
F87410.0
sg6
F1201773.0740740742
sg7
F1147424.0917431193
sg8
F4781352.708370385
sg9
F1030329.0
sg10
F1176.4651162790697
sg11
F0.01988203103974163
sg12
F1030329.0
sg13
F608.7906976744187
sg14
F465276.6630434783
sg15
F41.23255813953488
sg16
I00
sg17
F0.00706599200281856
sg18
F33785.0
sg19
Fnan
sg21
F64.8953488372093
sg22
F0.10659714263885704
ssS'WALLS JR ROBERT H'
p80
(dp81
g3
F357091.0
sg4
F671.0
sg5
F1798780.0
sg6
F850000.0
sg7
F1552453.0
sg8
F14803865.0
sg9
F5898997.0
sg10
F215.0
sg11
F0.0
sg12
F4346544.0
sg13
F146.0
sg14
F2.0
sg15
F0.0
sg16
I00
sg17
F0.0034407230814385297
sg18
F50936.0
sg19
S'rob.walls@enron.com'
p82
sg21
F17.0
sg22
F0.11643835616438356
ssS'KITCHEN LOUISE'
p83
(dp84
g3
F271442.0
sg4
F8305.0
sg5
F3471141.0
sg6
F3100000.0
sg7
F466101.0
sg8
F7936869.0
sg9
F547143.0
sg10
F3669.0
sg11
F0.023359422034918725
sg12
F81042.0
sg13
F1728.0
sg14
F93925.0
sg15
F194.0
sg16
I00
sg17
F0.0007274909035288349
sg18
F5774.0
sg19
S'louise.kitchen@enron.com'
p85
sg21
F251.0
sg22
F0.14525462962962962
ssS'CHAN RONNIE'
p86
(dp87
g3
F284087.5425531915
sg4
F2073.860465116279
sg5
F2623421.1774193547
sg6
F1201773.0740740742
sg7
F32460.0
sg8
F10453374.075472362
sg9
F3352073.024
sg10
F1176.4651162790697
sg11
F0.01988203103974163
sg12
F2959559.2574257427
sg13
F608.7906976744187
sg14
F465276.6630434783
sg15
F41.23255813953488
sg16
I00
sg17
F0.005184164485747543
sg18
F54192.01063829787
sg19
Fnan
sg21
F64.8953488372093
sg22
F0.10659714263885704
ssS'BELFER ROBERT'
p88
(dp89
g3
F284087.5425531915
sg4
F2073.860465116279
sg5
F102500.0
sg6
F1201773.0740740742
sg7
F1147424.0917431193
sg8
F2694976.7083703848
sg9
F-44093.0
sg10
F1176.4651162790697
sg11
F0.01988203103974163
sg12
F3285.0
sg13
F608.7906976744187
sg14
F465276.6630434783
sg15
F41.23255813953488
sg16
I00
sg17
F0.020108526530111286
sg18
F54192.01063829787
sg19
Fnan
sg21
F64.8953488372093
sg22
F0.10659714263885704
ssS'SHANKMAN JEFFREY A'
p90
(dp91
g3
F304110.0
sg4
F3221.0
sg5
F3038702.0
sg6
F2000000.0
sg7
F630137.0
sg8
F9486882.0
sg9
F2072035.0
sg10
F1730.0
sg11
F0.025768394908413535
sg12
F1441898.0
sg13
F2681.0
sg14
F1191.0
sg15
F83.0
sg16
I00
sg17
F0.018865945628922125
sg18
F178979.0
sg19
S'jeffrey.shankman@enron.com'
p92
sg21
F94.0
sg22
F0.0350615441999254
ssS'WODRASKA JOHN'
p93
(dp94
g3
F284087.5425531915
sg4
F2073.860465116279
sg5
F189583.0
sg6
F1201773.0740740742
sg7
F1147424.0917431193
sg8
F9134499.989796128
sg9
F3352073.024
sg10
F1176.4651162790697
sg11
F0.01988203103974163
sg12
F2959559.2574257427
sg13
F608.7906976744187
sg14
F189583.0
sg15
F41.23255813953488
sg16
I00
sg17
F0.005932674005017693
sg18
F54192.01063829787
sg19
S'john.wodraska@enron.com'
p95
sg21
F64.8953488372093
sg22
F0.10659714263885704
ssS'BERGSIEKER RICHARD P'
p96
(dp97
g3
F187922.0
sg4
F383.0
sg5
F618850.0
sg6
F250000.0
sg7
F659249.0
sg8
F5334829.257425742
sg9
F659249.0
sg10
F233.0
sg11
F0.0
sg12
F2959559.2574257427
sg13
F59.0
sg14
F427316.0
sg15
F0.0
sg16
I00
sg17
F0.011092201295408315
sg18
F59175.0
sg19
S'rick.bergsieker@enron.com'
p98
sg21
F4.0
sg22
F0.06779661016949153
ssS'URQUHART JOHN A'
p99
(dp100
g3
F284087.5425531915
sg4
F2073.860465116279
sg5
F228656.0
sg6
F1201773.0740740742
sg7
F1147424.0917431193
sg8
F9173572.989796128
sg9
F3352073.024
sg10
F1176.4651162790697
sg11
F0.01988203103974163
sg12
F2959559.2574257427
sg13
F608.7906976744187
sg14
F465276.6630434783
sg15
F41.23255813953488
sg16
I00
sg17
F0.02492551160320376
sg18
F228656.0
sg19
Fnan
sg21
F64.8953488372093
sg22
F0.10659714263885704
ssS'BIBI PHILIPPE A'
p101
(dp102
g3
F213625.0
sg4
F1607.0
sg5
F2047593.0
sg6
F1000000.0
sg7
F378082.0
sg8
F6948850.0
sg9
F1843816.0
sg10
F1336.0
sg11
F0.004978220286247666
sg12
F1465734.0
sg13
F40.0
sg14
F425688.0
sg15
F8.0
sg16
I00
sg17
F0.0055489757297970165
sg18
F38559.0
sg19
S'philippe.bibi@enron.com'
p103
sg21
F23.0
sg22
F0.575
ssS'PIRO JIM'
p104
(dp105
g3
F284087.5425531915
sg4
F58.0
sg5
F2623421.1774193547
sg6
F1201773.0740740742
sg7
F47304.0
sg8
F7163449.051472363
sg9
F47304.0
sg10
F3.0
sg11
F0.017241379310344827
sg12
F2959559.2574257427
sg13
F16.0
sg14
F465276.6630434783
sg15
F1.0
sg16
I00
sg17
F0.007565072390255828
sg18
F54192.01063829787
sg19
S'jim.piro@enron.com'
p106
sg21
F0.0
sg22
F0.0
ssS'RIEKER PAULA H'
p107
(dp108
g3
F249201.0
sg4
F1328.0
sg5
F1099100.0
sg6
F700000.0
sg7
F283649.0
sg8
F5886075.0
sg9
F1918887.0
sg10
F1258.0
sg11
F0.03614457831325301
sg12
F1635238.0
sg13
F82.0
sg14
F1950.0
sg15
F48.0
sg16
I01
sg17
F0.005652493384810761
sg18
F33271.0
sg19
S'paula.rieker@enron.com'
p109
sg21
F35.0
sg22
F0.4268292682926829
ssS'WHALEY DAVID A'
p110
(dp111
g3
F284087.5425531915
sg4
F2073.860465116279
sg5
F2623421.1774193547
sg6
F1201773.0740740742
sg7
F1147424.0917431193
sg8
F5454141.885789739
sg9
F98718.0
sg10
F1176.4651162790697
sg11
F0.01988203103974163
sg12
F98718.0
sg13
F608.7906976744187
sg14
F465276.6630434783
sg15
F41.23255813953488
sg16
I00
sg17
F0.009935937086545206
sg18
F54192.01063829787
sg19
Fnan
sg21
F64.8953488372093
sg22
F0.10659714263885704
ssS'BECK SALLY W'
p112
(dp113
g3
F231330.0
sg4
F7315.0
sg5
F969068.0
sg6
F700000.0
sg7
F126027.0
sg8
F5112011.257425742
sg9
F126027.0
sg10
F2639.0
sg11
F0.052768284347231714
sg12
F2959559.2574257427
sg13
F4343.0
sg14
F566.0
sg15
F386.0
sg16
I00
sg17
F0.007271501983882313
sg18
F37172.0
sg19
S'sally.beck@enron.com'
p114
sg21
F144.0
sg22
F0.033156804052498275
ssS'HAUG DAVID L'
p115
(dp116
g3
F284087.5425531915
sg4
F573.0
sg5
F475.0
sg6
F1201773.0740740742
sg7
F2217299.0
sg8
F8880492.874053009
sg9
F2217299.0
sg10
F471.0
sg11
F0.012216404886561954
sg12
F2959559.2574257427
sg13
F19.0
sg14
F465276.6630434783
sg15
F7.0
sg16
I00
sg17
F5.348802220064308e-05
sg18
F475.0
sg19
S'david.haug@enron.com'
p117
sg21
F4.0
sg22
F0.21052631578947367
ssS'ECHOLS JOHN B'
p118
(dp119
g3
F182245.0
sg4
F2073.860465116279
sg5
F2692324.0
sg6
F200000.0
sg7
F407503.0
sg8
F5092451.0
sg9
F1008941.0
sg10
F1176.4651162790697
sg11
F0.01988203103974163
sg12
F601438.0
sg13
F608.7906976744187
sg14
F53775.0
sg15
F41.23255813953488
sg16
I00
sg17
F0.004227826639863594
sg18
F21530.0
sg19
S'john.echols@enron.com'
p120
sg21
F64.8953488372093
sg22
F0.10659714263885704
ssS'MENDELSOHN JOHN'
p121
(dp122
g3
F284087.5425531915
sg4
F2073.860465116279
sg5
F148.0
sg6
F1201773.0740740742
sg7
F1147424.0917431193
sg8
F8945064.989796128
sg9
F3352073.024
sg10
F1176.4651162790697
sg11
F0.01988203103974163
sg12
F2959559.2574257427
sg13
F608.7906976744187
sg14
F465276.6630434783
sg15
F41.23255813953488
sg16
I00
sg17
F1.6545435965957486e-05
sg18
F148.0
sg19
Fnan
sg21
F64.8953488372093
sg22
F0.10659714263885704
ssS'HICKERSON GARY J'
p123
(dp124
g3
F211788.0
sg4
F1320.0
sg5
F2081796.0
sg6
F1700000.0
sg7
F441096.0
sg8
F7835335.257425742
sg9
F441096.0
sg10
F900.0
sg11
F0.0007575757575757576
sg12
F2959559.2574257427
sg13
F27.0
sg14
F1936.0
sg15
F1.0
sg16
I00
sg17
F0.012615797123207758
sg18
F98849.0
sg19
S'gary.hickerson@enron.com'
p125
sg21
F40.0
sg22
F1.4814814814814814
ssS'CLINE KENNETH W'
p126
(dp127
g3
F284087.5425531915
sg4
F2073.860465116279
sg5
F2623421.1774193547
sg6
F1201773.0740740742
sg7
F662086.0
sg8
F7920445.051472362
sg9
F189518.0
sg10
F1176.4651162790697
sg11
F0.01988203103974163
sg12
F2959559.2574257427
sg13
F608.7906976744187
sg14
F465276.6630434783
sg15
F41.23255813953488
sg16
I00
sg17
F0.006842041108311699
sg18
F54192.01063829787
sg19
Fnan
sg21
F64.8953488372093
sg22
F0.10659714263885704
ssS'LEWIS RICHARD'
p128
(dp129
g3
F284087.5425531915
sg4
F952.0
sg5
F2623421.1774193547
sg6
F1201773.0740740742
sg7
F1147424.0917431193
sg8
F6957659.885789739
sg9
F850477.0
sg10
F739.0
sg11
F0.0
sg12
F850477.0
sg13
F26.0
sg14
F465276.6630434783
sg15
F0.0
sg16
I00
sg17
F0.00778882721027786
sg18
F54192.01063829787
sg19
S'richard.lewis@enron.com'
p130
sg21
F10.0
sg22
F0.38461538461538464
ssS'HAYES ROBERT E'
p131
(dp132
g3
F284087.5425531915
sg4
F504.0
sg5
F7961.0
sg6
F1201773.0740740742
sg7
F151418.0
sg8
F4756216.874053009
sg9
F151418.0
sg10
F50.0
sg11
F0.0
sg12
F2959559.2574257427
sg13
F12.0
sg14
F465276.6630434783
sg15
F0.0
sg16
I00
sg17
F0.011393931789346301
sg18
F54192.01063829787
sg19
S'robert.hayes@enron.com'
p133
sg21
F16.0
sg22
F1.3333333333333333
ssS'KOPPER MICHAEL J'
p134
(dp135
g3
F224305.0
sg4
F2073.860465116279
sg5
F2652612.0
sg6
F800000.0
sg7
F985032.0
sg8
F8606540.257425742
sg9
F985032.0
sg10
F1176.4651162790697
sg11
F0.01988203103974163
sg12
F2959559.2574257427
sg13
F608.7906976744187
sg14
F907502.0
sg15
F41.23255813953488
sg16
I01
sg17
F0.013726073017328156
sg18
F118134.0
sg19
S'michael.kopper@enron.com'
p136
sg21
F64.8953488372093
sg22
F0.10659714263885704
ssS'LEFF DANIEL P'
p137
(dp138
g3
F273746.0
sg4
F2822.0
sg5
F2664228.0
sg6
F1000000.0
sg7
F360528.0
sg8
F7618589.257425742
sg9
F360528.0
sg10
F2672.0
sg11
F0.004961020552799433
sg12
F2959559.2574257427
sg13
F63.0
sg14
F3083.0
sg15
F14.0
sg16
I00
sg17
F0.007113129321872498
sg18
F54192.01063829787
sg19
S'dan.leff@enron.com'
p139
sg21
F67.0
sg22
F1.0634920634920635
ssS'LAVORATO JOHN J'
p140
(dp141
g3
F339288.0
sg4
F7259.0
sg5
F10425757.0
sg6
F8000000.0
sg7
F1008149.0
sg8
F29099333.0
sg9
F5167144.0
sg10
F3962.0
sg11
F0.05661936905909905
sg12
F4158995.0
sg13
F2585.0
sg14
F1552.0
sg15
F411.0
sg16
I00
sg17
F0.00170234142480173
sg18
F49537.0
sg19
S'john.lavorato@enron.com'
p142
sg21
F528.0
sg22
F0.20425531914893616
ssS'BERBERIAN DAVID'
p143
(dp144
g3
F216582.0
sg4
F2073.860465116279
sg5
F228474.0
sg6
F1201773.0740740742
sg7
F869220.0
sg8
F6634061.074074075
sg9
F2493616.0
sg10
F1176.4651162790697
sg11
F0.01988203103974163
sg12
F1624396.0
sg13
F608.7906976744187
sg14
F465276.6630434783
sg15
F41.23255813953488
sg16
I00
sg17
F0.0017925671571631986
sg18
F11892.0
sg19
S'david.berberian@enron.com'
p145
sg21
F64.8953488372093
sg22
F0.10659714263885704
ssS'DETMERING TIMOTHY J'
p146
(dp147
g3
F210500.0
sg4
F2073.860465116279
sg5
F1204583.0
sg6
F425000.0
sg7
F315068.0
sg8
F6210881.0
sg9
F2027865.0
sg10
F1176.4651162790697
sg11
F0.01988203103974163
sg12
F2027865.0
sg13
F608.7906976744187
sg14
F1105.0
sg15
F41.23255813953488
sg16
I00
sg17
F0.008413460183828993
sg18
F52255.0
sg19
S'timothy.detmering@enron.com'
p148
sg21
F64.8953488372093
sg22
F0.10659714263885704
ssS'WAKEHAM JOHN'
p149
(dp150
g3
F284087.5425531915
sg4
F2073.860465116279
sg5
F213071.0
sg6
F1201773.0740740742
sg7
F1147424.0917431193
sg8
F9157987.989796128
sg9
F3352073.024
sg10
F1176.4651162790697
sg11
F0.01988203103974163
sg12
F2959559.2574257427
sg13
F608.7906976744187
sg14
F465276.6630434783
sg15
F41.23255813953488
sg16
I00
sg17
F0.011331419097254151
sg18
F103773.0
sg19
Fnan
sg21
F64.8953488372093
sg22
F0.10659714263885704
ssS'POWERS WILLIAM'
p151
(dp152
g3
F284087.5425531915
sg4
F653.0
sg5
F2623421.1774193547
sg6
F1201773.0740740742
sg7
F1147424.0917431193
sg8
F11568338.167215481
sg9
F3352073.024
sg10
F12.0
sg11
F0.0
sg12
F2959559.2574257427
sg13
F26.0
sg14
F465276.6630434783
sg15
F0.0
sg16
I00
sg17
F0.004684511280269911
sg18
F54192.01063829787
sg19
S'ken.powers@enron.com'
p153
sg21
F0.0
sg22
F0.0
ssS'GOLD JOSEPH'
p154
(dp155
g3
F272880.0
sg4
F2073.860465116279
sg5
F2146973.0
sg6
F750000.0
sg7
F441096.0
sg8
F4925075.0
sg9
F877611.0
sg10
F1176.4651162790697
sg11
F0.01988203103974163
sg12
F436515.0
sg13
F608.7906976744187
sg14
F819288.0
sg15
F41.23255813953488
sg16
I00
sg17
F0.011003286373973568
sg18
F54192.01063829787
sg19
S'joe.gold@enron.com'
p156
sg21
F64.8953488372093
sg22
F0.10659714263885704
ssS'BANNANTINE JAMES M'
p157
(dp158
g3
F477.0
sg4
F566.0
sg5
F916197.0
sg6
F1201773.0740740742
sg7
F1757552.0
sg8
F13165643.074074075
sg9
F5243487.0
sg10
F465.0
sg11
F0.0
sg12
F4046157.0
sg13
F29.0
sg14
F864523.0
sg15
F0.0
sg16
I00
sg17
F0.004276357765680928
sg18
F56301.0
sg19
S'james.bannantine@enron.com'
p159
sg21
F39.0
sg22
F1.3448275862068966
ssS'DUNCAN JOHN H'
p160
(dp161
g3
F284087.5425531915
sg4
F2073.860465116279
sg5
F77492.0
sg6
F1201773.0740740742
sg7
F1147424.0917431193
sg8
F3454276.7083703848
sg9
F371750.0
sg10
F1176.4651162790697
sg11
F0.01988203103974163
sg12
F371750.0
sg13
F608.7906976744187
sg14
F465276.6630434783
sg15
F41.23255813953488
sg16
I00
sg17
F0.01568838145102275
sg18
F54192.01063829787
sg19
Fnan
sg21
F64.8953488372093
sg22
F0.10659714263885704
ssS'SHAPIRO RICHARD S'
p162
(dp163
g3
F269076.0
sg4
F15149.0
sg5
F1057548.0
sg6
F650000.0
sg7
F379164.0
sg8
F3950626.0
sg9
F987001.0
sg10
F4527.0
sg11
F0.004290712258234867
sg12
F607837.0
sg13
F1215.0
sg14
F705.0
sg15
F65.0
sg16
I00
sg17
F0.03487219493821992
sg18
F137767.0
sg19
S'richard.shapiro@enron.com'
p164
sg21
F74.0
sg22
F0.060905349794238686
ssS'SHERRIFF JOHN R'
p165
(dp166
g3
F428780.0
sg4
F3187.0
sg5
F4335388.0
sg6
F1500000.0
sg7
F1293424.0
sg8
F12522132.0
sg9
F3128982.0
sg10
F2103.0
sg11
F0.0072168183244430495
sg12
F1835558.0
sg13
F92.0
sg14
F1852186.0
sg15
F23.0
sg16
I00
sg17
F0.004327698401382279
sg18
F54192.01063829787
sg19
S'john.sherriff@enron.com'
p167
sg21
F28.0
sg22
F0.30434782608695654
ssS'SHELBY REX'
p168
(dp169
g3
F211844.0
sg4
F225.0
sg5
F2003885.0
sg6
F200000.0
sg7
F869220.0
sg8
F7402961.0
sg9
F2493616.0
sg10
F91.0
sg11
F0.06222222222222222
sg12
F1624396.0
sg13
F39.0
sg14
F1573324.0
sg15
F14.0
sg16
I01
sg17
F0.0030911955364887104
sg18
F22884.0
sg19
S'rex.shelby@enron.com'
p170
sg21
F13.0
sg22
F0.3333333333333333
ssS'LEMAISTRE CHARLES'
p171
(dp172
g3
F284087.5425531915
sg4
F2073.860465116279
sg5
F87492.0
sg6
F1201773.0740740742
sg7
F1147424.0917431193
sg8
F3546532.7083703848
sg9
F412878.0
sg10
F1176.4651162790697
sg11
F0.01988203103974163
sg12
F412878.0
sg13
F608.7906976744187
sg14
F465276.6630434783
sg15
F41.23255813953488
sg16
I00
sg17
F0.015280279386792642
sg18
F54192.01063829787
sg19
Fnan
sg21
F64.8953488372093
sg22
F0.10659714263885704
ssS'DEFFNER JOSEPH M'
p173
(dp174
g3
F206121.0
sg4
F714.0
sg5
F1208649.0
sg6
F600000.0
sg7
F141833.0
sg8
F2333192.0
sg9
F159211.0
sg10
F552.0
sg11
F0.0056022408963585435
sg12
F17378.0
sg13
F74.0
sg14
F25553.0
sg15
F4.0
sg16
I00
sg17
F0.017840794928149932
sg18
F41626.0
sg19
S'joseph.deffner@enron.com'
p175
sg21
F115.0
sg22
F1.554054054054054
ssS'KISHKILL JOSEPH G'
p176
(dp177
g3
F174246.0
sg4
F2073.860465116279
sg5
F704896.0
sg6
F1201773.0740740742
sg7
F1034346.0
sg8
F7109166.331499817
sg9
F1034346.0
sg10
F1176.4651162790697
sg11
F0.01988203103974163
sg12
F2959559.2574257427
sg13
F608.7906976744187
sg14
F465357.0
sg15
F41.23255813953488
sg16
I00
sg17
F0.016364084700696103
sg18
F116335.0
sg19
S'joe.kishkill@enron.com'
p178
sg21
F64.8953488372093
sg22
F0.10659714263885704
ssS'WHALLEY LAWRENCE G'
p179
(dp180
g3
F510364.0
sg4
F6019.0
sg5
F4677574.0
sg6
F3000000.0
sg7
F2796177.0
sg8
F20346212.0
sg9
F6079137.0
sg10
F3920.0
sg11
F0.003987373317826882
sg12
F3282960.0
sg13
F556.0
sg14
F301026.0
sg15
F24.0
sg16
I00
sg17
F0.0028426913078463943
sg18
F57838.0
sg19
S'greg.whalley@enron.com'
p181
sg21
F186.0
sg22
F0.3345323741007194
ssS'MCCARTY DANNY J'
p182
(dp183
g3
F284087.5425531915
sg4
F1433.0
sg5
F2623421.1774193547
sg6
F1201773.0740740742
sg7
F94556.0
sg8
F5627143.79404662
sg9
F758931.0
sg10
F508.0
sg11
F0.0013956734124214933
sg12
F664375.0
sg13
F215.0
sg14
F465276.6630434783
sg15
F2.0
sg16
I00
sg17
F0.009630464872006948
sg18
F54192.01063829787
sg19
S'danny.mccarty@enron.com'
p184
sg21
F25.0
sg22
F0.11627906976744186
ssS'MCCONNELL MICHAEL S'
p185
(dp186
g3
F365038.0
sg4
F3329.0
sg5
F2101364.0
sg6
F1100000.0
sg7
F1478269.0
sg8
F9768960.0
sg9
F3101279.0
sg10
F2189.0
sg11
F0.058275758486031844
sg12
F1623010.0
sg13
F2742.0
sg14
F540.0
sg15
F194.0
sg16
I00
sg17
F0.00832882927148847
sg18
F81364.0
sg19
S'mike.mcconnell@enron.com'
p187
sg21
F92.0
sg22
F0.03355215171407731
ssS'DELAINEY DAVID W'
p188
(dp189
g3
F365163.0
sg4
F3093.0
sg5
F4747979.0
sg6
F3000000.0
sg7
F1323148.0
sg8
F15341664.0
sg9
F3614261.0
sg10
F2097.0
sg11
F0.19689621726479145
sg12
F2291113.0
sg13
F3069.0
sg14
F1661.0
sg15
F609.0
sg16
I01
sg17
F0.005616991742225615
sg18
F86174.0
sg19
S'david.delainey@enron.com'
p190
sg21
F66.0
sg22
F0.021505376344086023
ssS'SULLIVAN-SHAKLOVITZ COLLEEN'
p191
(dp192
g3
F162779.0
sg4
F2073.860465116279
sg5
F999356.0
sg6
F100000.0
sg7
F1147424.0917431193
sg8
F5134309.091743119
sg9
F1362375.0
sg10
F1176.4651162790697
sg11
F0.01988203103974163
sg12
F1362375.0
sg13
F608.7906976744187
sg14
F162.0
sg15
F41.23255813953488
sg16
I00
sg17
F0.010554878888271111
sg18
F54192.01063829787
sg19
Fnan
sg21
F64.8953488372093
sg22
F0.10659714263885704
ssS'WROBEL BRUCE'
p193
(dp194
g3
F284087.5425531915
sg4
F2073.860465116279
sg5
F2623421.1774193547
sg6
F1201773.0740740742
sg7
F1147424.0917431193
sg8
F5534965.885789739
sg9
F139130.0
sg10
F1176.4651162790697
sg11
F0.01988203103974163
sg12
F139130.0
sg13
F608.7906976744187
sg14
F465276.6630434783
sg15
F41.23255813953488
sg16
I00
sg17
F0.009790848174408515
sg18
F54192.01063829787
sg19
Fnan
sg21
F64.8953488372093
sg22
F0.10659714263885704
ssS'LINDHOLM TOD A'
p195
(dp196
g3
F236457.0
sg4
F2073.860465116279
sg5
F875889.0
sg6
F200000.0
sg7
F514847.0
sg8
F7440762.0
sg9
F3064208.0
sg10
F1176.4651162790697
sg11
F0.01988203103974163
sg12
F2549361.0
sg13
F608.7906976744187
sg14
F2630.0
sg15
F41.23255813953488
sg16
I00
sg17
F0.0077582107854007425
sg18
F57727.0
sg19
S'tod.lindholm@enron.com'
p197
sg21
F64.8953488372093
sg22
F0.10659714263885704
ssS'MEYER JEROME J'
p198
(dp199
g3
F284087.5425531915
sg4
F2073.860465116279
sg5
F2151.0
sg6
F1201773.0740740742
sg7
F1147424.0917431193
sg8
F8947067.989796128
sg9
F3352073.024
sg10
F1176.4651162790697
sg11
F0.01988203103974163
sg12
F2959559.2574257427
sg13
F608.7906976744187
sg14
F465276.6630434783
sg15
F41.23255813953488
sg16
I00
sg17
F0.00024041395487920213
sg18
F2151.0
sg19
Fnan
sg21
F64.8953488372093
sg22
F0.10659714263885704
ssS'LAY KENNETH L'
p200
(dp201
g3
F1072321.0
sg4
F4273.0
sg5
F103559793.0
sg6
F7000000.0
sg7
F14761694.0
sg8
F209852270.0
sg9
F49110078.0
sg10
F2411.0
sg11
F0.003744441844137608
sg12
F34348384.0
sg13
F36.0
sg14
F10359729.0
sg15
F16.0
sg16
I01
sg17
F0.000475725137497917
sg18
F99832.0
sg19
S'kenneth.lay@enron.com'
p202
sg21
F123.0
sg22
F3.4166666666666665
ssS'BUTTS ROBERT H'
p203
(dp204
g3
F261516.0
sg4
F2073.860465116279
sg5
F1271582.0
sg6
F750000.0
sg7
F417619.0
sg8
F6077895.257425742
sg9
F417619.0
sg10
F1176.4651162790697
sg11
F0.01988203103974163
sg12
F2959559.2574257427
sg13
F608.7906976744187
sg14
F150656.0
sg15
F41.23255813953488
sg16
I00
sg17
F0.0015482333277302234
sg18
F9410.0
sg19
S'bob.butts@enron.com'
p205
sg21
F64.8953488372093
sg22
F0.10659714263885704
ssS'OLSON CINDY K'
p206
(dp207
g3
F329078.0
sg4
F1184.0
sg5
F1321557.0
sg6
F750000.0
sg7
F969729.0
sg8
F7614161.0
sg9
F2606763.0
sg10
F856.0
sg11
F0.01266891891891892
sg12
F1637034.0
sg13
F52.0
sg14
F972.0
sg15
F15.0
sg16
I00
sg17
F0.008377942100252412
sg18
F63791.0
sg19
S'cindy.olson@enron.com'
p208
sg21
F20.0
sg22
F0.38461538461538464
ssS'MCDONALD REBECCA'
p209
(dp210
g3
F284087.5425531915
sg4
F894.0
sg5
F2623421.1774193547
sg6
F1201773.0740740742
sg7
F934065.0
sg8
F7492013.79404662
sg9
F1691366.0
sg10
F720.0
sg11
F0.0011185682326621924
sg12
F757301.0
sg13
F13.0
sg14
F465276.6630434783
sg15
F1.0
sg16
I00
sg17
F0.007233303638784071
sg18
F54192.01063829787
sg19
S'rebecca.mcdonald@enron.com'
p211
sg21
F54.0
sg22
F4.153846153846154
ssS'CUMBERLAND MICHAEL S'
p212
(dp213
g3
F184899.0
sg4
F2073.860465116279
sg5
F807956.0
sg6
F325000.0
sg7
F207940.0
sg8
F4693294.257425742
sg9
F207940.0
sg10
F1176.4651162790697
sg11
F0.01988203103974163
sg12
F2959559.2574257427
sg13
F608.7906976744187
sg14
F713.0
sg15
F41.23255813953488
sg16
I00
sg17
F0.0047608350924613916
sg18
F22344.0
sg19
Fnan
sg21
F64.8953488372093
sg22
F0.10659714263885704
ssS'GAHN ROBERT S'
p214
(dp215
g3
F192008.0
sg4
F2073.860465116279
sg5
F900585.0
sg6
F509870.0
sg7
F235370.0
sg8
F2239677.0
sg9
F318607.0
sg10
F1176.4651162790697
sg11
F0.01988203103974163
sg12
F83237.0
sg13
F608.7906976744187
sg14
F76547.0
sg15
F41.23255813953488
sg16
I00
sg17
F0.022360367142226313
sg18
F50080.0
sg19
Fnan
sg21
F64.8953488372093
sg22
F0.10659714263885704
ssS'MCCLELLAN GEORGE'
p216
(dp217
g3
F263413.0
sg4
F1744.0
sg5
F1318763.0
sg6
F900000.0
sg7
F441096.0
sg8
F4377898.0
sg9
F947861.0
sg10
F1469.0
sg11
F0.0
sg12
F506765.0
sg13
F49.0
sg14
F51587.0
sg15
F0.0
sg16
I00
sg17
F0.05225407261658449
sg18
F228763.0
sg19
S'george.mcclellan@enron.com'
p218
sg21
F52.0
sg22
F1.0612244897959184
ssS'HERMANN ROBERT J'
p219
(dp220
g3
F262663.0
sg4
F2073.860465116279
sg5
F1297461.0
sg6
F700000.0
sg7
F480632.0
sg8
F3596388.0
sg9
F668132.0
sg10
F1176.4651162790697
sg11
F0.01988203103974163
sg12
F187500.0
sg13
F608.7906976744187
sg14
F416441.0
sg15
F41.23255813953488
sg16
I00
sg17
F0.01344599081078015
sg18
F48357.0
sg19
S'robert.hermann@enron.com'
p221
sg21
F64.8953488372093
sg22
F0.10659714263885704
ssS'SCRIMSHAW MATTHEW'
p222
(dp223
g3
F284087.5425531915
sg4
F2073.860465116279
sg5
F2623421.1774193547
sg6
F1201773.0740740742
sg7
F1147424.0917431193
sg8
F6775819.885789739
sg9
F759557.0
sg10
F1176.4651162790697
sg11
F0.01988203103974163
sg12
F759557.0
sg13
F608.7906976744187
sg14
F465276.6630434783
sg15
F41.23255813953488
sg16
I00
sg17
F0.007997852887434249
sg18
F54192.01063829787
sg19
S'matthew.scrimshaw@enron.com'
p224
sg21
F64.8953488372093
sg22
F0.10659714263885704
ssS'GATHMANN WILLIAM D'
p225
(dp226
g3
F284087.5425531915
sg4
F2073.860465116279
sg5
F2623421.1774193547
sg6
F1201773.0740740742
sg7
F264013.0
sg8
F8072420.79404662
sg9
F1945360.0
sg10
F1176.4651162790697
sg11
F0.01988203103974163
sg12
F1753766.0
sg13
F608.7906976744187
sg14
F465276.6630434783
sg15
F41.23255813953488
sg16
I00
sg17
F0.006713229156520715
sg18
F54192.01063829787
sg19
Fnan
sg21
F64.8953488372093
sg22
F0.10659714263885704
ssS'HAEDICKE MARK E'
p227
(dp228
g3
F374125.0
sg4
F4009.0
sg5
F3859065.0
sg6
F1150000.0
sg7
F524169.0
sg8
F7319203.0
sg9
F803094.0
sg10
F1847.0
sg11
F0.015215764529807932
sg12
F608750.0
sg13
F1941.0
sg14
F52382.0
sg15
F61.0
sg16
I00
sg17
F0.010406734175838544
sg18
F76169.0
sg19
S'mark.haedicke@enron.com'
p229
sg21
F180.0
sg22
F0.09273570324574962
ssS'BOWEN JR RAYMOND M'
p230
(dp231
g3
F278601.0
sg4
F1858.0
sg5
F2669589.0
sg6
F1350000.0
sg7
F252055.0
sg8
F7761859.257425742
sg9
F252055.0
sg10
F1593.0
sg11
F0.008073196986006458
sg12
F2959559.2574257427
sg13
F27.0
sg14
F1621.0
sg15
F15.0
sg16
I01
sg17
F0.008491135669195111
sg18
F65907.0
sg19
S'raymond.bowen@enron.com'
p232
sg21
F140.0
sg22
F5.185185185185185
ssS'GILLIS JOHN'
p233
(dp234
g3
F284087.5425531915
sg4
F2073.860465116279
sg5
F2623421.1774193547
sg6
F1201773.0740740742
sg7
F75838.0
sg8
F4280563.79404662
sg9
F85641.0
sg10
F1176.4651162790697
sg11
F0.01988203103974163
sg12
F9803.0
sg13
F608.7906976744187
sg14
F465276.6630434783
sg15
F41.23255813953488
sg16
I00
sg17
F0.012660017055152352
sg18
F54192.01063829787
sg19
Fnan
sg21
F64.8953488372093
sg22
F0.10659714263885704
ssS'FITZGERALD JAY L'
p235
(dp236
g3
F199157.0
sg4
F936.0
sg5
F1414857.0
sg6
F350000.0
sg7
F956775.0
sg8
F5206486.0
sg9
F1621236.0
sg10
F723.0
sg11
F0.008547008547008548
sg12
F664461.0
sg13
F16.0
sg14
F285414.0
sg15
F8.0
sg16
I00
sg17
F0.00458466612605892
sg18
F23870.0
sg19
S'jay.fitzgerald@enron.com'
p237
sg21
F1.0
sg22
F0.0625
ssS'MORAN MICHAEL P'
p238
(dp239
g3
F284087.5425531915
sg4
F672.0
sg5
F2623421.1774193547
sg6
F1201773.0740740742
sg7
F161602.0
sg8
F4551563.79404662
sg9
F221141.0
sg10
F127.0
sg11
F0.0
sg12
F59539.0
sg13
F19.0
sg14
F465276.6630434783
sg15
F0.0
sg16
I00
sg17
F0.011906239940914427
sg18
F54192.01063829787
sg19
S'michael.moran@enron.com'
p240
sg21
F0.0
sg22
F0.0
ssS'REDMOND BRIAN L'
p241
(dp242
g3
F96840.0
sg4
F1671.0
sg5
F111529.0
sg6
F1201773.0740740742
sg7
F381285.0
sg8
F17190790.074074075
sg9
F7890324.0
sg10
F1063.0
sg11
F0.029323758228605626
sg12
F7509039.0
sg13
F221.0
sg14
F465276.6630434783
sg15
F49.0
sg16
I00
sg17
F0.0008544691626566311
sg18
F14689.0
sg19
S'brian.redmond@enron.com'
p243
sg21
F204.0
sg22
F0.9230769230769231
ssS'BAZELIDES PHILIP J'
p244
(dp245
g3
F80818.0
sg4
F2073.860465116279
sg5
F860136.0
sg6
F1201773.0740740742
sg7
F1147424.0917431193
sg8
F6489433.165817194
sg9
F1599641.0
sg10
F1176.4651162790697
sg11
F0.01988203103974163
sg12
F1599641.0
sg13
F608.7906976744187
sg14
F874.0
sg15
F41.23255813953488
sg16
I00
sg17
F0.00835080803724922
sg18
F54192.01063829787
sg19
Fnan
sg21
F64.8953488372093
sg22
F0.10659714263885704
ssS'BELDEN TIMOTHY N'
p246
(dp247
g3
F213999.0
sg4
F7991.0
sg5
F5501630.0
sg6
F5249999.0
sg7
F157569.0
sg8
F13187038.0
sg9
F1110705.0
sg10
F5521.0
sg11
F0.013515204605180828
sg12
F953136.0
sg13
F484.0
sg14
F210698.0
sg15
F108.0
sg16
I01
sg17
F0.0013160650632841127
sg18
F17355.0
sg19
S'tim.belden@enron.com'
p248
sg21
F228.0
sg22
F0.47107438016528924
ssS'DURAN WILLIAM D'
p249
(dp250
g3
F210692.0
sg4
F904.0
sg5
F2093263.0
sg6
F750000.0
sg7
F189041.0
sg8
F6335775.0
sg9
F1640910.0
sg10
F599.0
sg11
F0.00331858407079646
sg12
F1451869.0
sg13
F12.0
sg14
F1568.0
sg15
F3.0
sg16
I00
sg17
F0.004069746794985617
sg18
F25785.0
sg19
S'w.duran@enron.com'
p251
sg21
F106.0
sg22
F8.833333333333334
ssS'THORN TERENCE H'
p252
(dp253
g3
F222093.0
sg4
F266.0
sg5
F911453.0
sg6
F1201773.0740740742
sg7
F365320.0
sg8
F11970911.074074075
sg9
F4817796.0
sg10
F73.0
sg11
F0.0
sg12
F4452476.0
sg13
F41.0
sg14
F426629.0
sg15
F0.0
sg16
I00
sg17
F0.0038547609045345133
sg18
F46145.0
sg19
S'terence.thorn@enron.com'
p254
sg21
F0.0
sg22
F0.0
ssS'FASTOW ANDREW S'
p255
(dp256
g3
F440698.0
sg4
F2073.860465116279
sg5
F2424083.0
sg6
F1300000.0
sg7
F1794412.0
sg8
F10713164.257425742
sg9
F1794412.0
sg10
F1176.4651162790697
sg11
F0.01988203103974163
sg12
F2959559.2574257427
sg13
F608.7906976744187
sg14
F277464.0
sg15
F41.23255813953488
sg16
I01
sg17
F0.00521983969033601
sg18
F55921.0
sg19
S'andrew.fastow@enron.com'
p257
sg21
F64.8953488372093
sg22
F0.10659714263885704
ssS'FOY JOE'
p258
(dp259
g3
F284087.5425531915
sg4
F57.0
sg5
F181755.0
sg6
F1201773.0740740742
sg7
F1147424.0917431193
sg8
F3501907.7083703848
sg9
F343434.0
sg10
F2.0
sg11
F0.0
sg12
F343434.0
sg13
F13.0
sg14
F465276.6630434783
sg15
F0.0
sg16
I00
sg17
F0.015474996816382737
sg18
F54192.01063829787
sg19
S'tracy.foy@enron.com'
p260
sg21
F0.0
sg22
F0.0
ssS'CALGER CHRISTOPHER F'
p261
(dp262
g3
F240189.0
sg4
F2598.0
sg5
F1639297.0
sg6
F1250000.0
sg7
F126027.0
sg8
F6341099.257425742
sg9
F126027.0
sg10
F2188.0
sg11
F0.00962278675904542
sg12
F2959559.2574257427
sg13
F144.0
sg14
F486.0
sg15
F25.0
sg16
I01
sg17
F0.005648547443576971
sg18
F35818.0
sg19
S'christopher.calger@enron.com'
p263
sg21
F199.0
sg22
F1.3819444444444444
ssS'RICE KENNETH D'
p264
(dp265
g3
F420636.0
sg4
F905.0
sg5
F505050.0
sg6
F1750000.0
sg7
F2748364.0
sg8
F47760764.0
sg9
F22542539.0
sg10
F864.0
sg11
F0.004419889502762431
sg12
F19794175.0
sg13
F18.0
sg14
F174839.0
sg15
F4.0
sg16
I01
sg17
F0.000983024475906625
sg18
F46950.0
sg19
S'ken.rice@enron.com'
p266
sg21
F42.0
sg22
F2.3333333333333335
ssS'KAMINSKI WINCENTY J'
p267
(dp268
g3
F275101.0
sg4
F4607.0
sg5
F1086821.0
sg6
F400000.0
sg7
F126027.0
sg8
F3713996.0
sg9
F976037.0
sg10
F583.0
sg11
F0.03711742999782939
sg12
F850010.0
sg13
F14368.0
sg14
F4669.0
sg15
F171.0
sg16
I00
sg17
F0.022505409268076756
sg18
F83585.0
sg19
S'vince.kaminski@enron.com'
p269
sg21
F41.0
sg22
F0.002853563474387528
ssS'LOCKHART EUGENE E'
p270
(dp271
g3
F284087.5425531915
sg4
F2073.860465116279
sg5
F2623421.1774193547
sg6
F1201773.0740740742
sg7
F1147424.0917431193
sg8
F11568338.167215481
sg9
F3352073.024
sg10
F1176.4651162790697
sg11
F0.01988203103974163
sg12
F2959559.2574257427
sg13
F608.7906976744187
sg14
F465276.6630434783
sg15
F41.23255813953488
sg16
I00
sg17
F0.004684511280269911
sg18
F54192.01063829787
sg19
Fnan
sg21
F64.8953488372093
sg22
F0.10659714263885704
ssS'COX DAVID'
p272
(dp273
g3
F314288.0
sg4
F102.0
sg5
F1101393.0
sg6
F800000.0
sg7
F378082.0
sg8
F3206947.0
sg9
F495633.0
sg10
F71.0
sg11
F0.0392156862745098
sg12
F117551.0
sg13
F33.0
sg14
F494.0
sg15
F4.0
sg16
I00
sg17
F0.008687702041848525
sg18
F27861.0
sg19
S'chip.cox@enron.com'
p274
sg21
F0.0
sg22
F0.0
ssS'OVERDYKE JR JERE C'
p275
(dp276
g3
F94941.0
sg4
F2073.860465116279
sg5
F249787.0
sg6
F1201773.0740740742
sg7
F2041016.0
sg8
F16161689.074074075
sg9
F7307594.0
sg10
F1176.4651162790697
sg11
F0.01988203103974163
sg12
F5266578.0
sg13
F608.7906976744187
sg14
F176.0
sg15
F41.23255813953488
sg16
I00
sg17
F0.001165348492578832
sg18
F18834.0
sg19
S'jere.overdyke@enron.com'
p277
sg21
F64.8953488372093
sg22
F0.10659714263885704
ssS'PEREIRA PAULO V. FERRAZ'
p278
(dp279
g3
F284087.5425531915
sg4
F2073.860465116279
sg5
F27942.0
sg6
F1201773.0740740742
sg7
F1147424.0917431193
sg8
F8972858.989796128
sg9
F3352073.024
sg10
F1176.4651162790697
sg11
F0.01988203103974163
sg12
F2959559.2574257427
sg13
F608.7906976744187
sg14
F465276.6630434783
sg15
F41.23255813953488
sg16
I00
sg17
F0.0031140576299901117
sg18
F27942.0
sg19
Fnan
sg21
F64.8953488372093
sg22
F0.10659714263885704
ssS'STABLER FRANK'
p280
(dp281
g3
F239502.0
sg4
F2073.860465116279
sg5
F1112087.0
sg6
F500000.0
sg7
F511734.0
sg8
F5834616.257425742
sg9
F511734.0
sg10
F1176.4651162790697
sg11
F0.01988203103974163
sg12
F2959559.2574257427
sg13
F608.7906976744187
sg14
F356071.0
sg15
F41.23255813953488
sg16
I00
sg17
F0.00283034895036714
sg18
F16514.0
sg19
S'frank.stabler@enron.com'
p282
sg21
F64.8953488372093
sg22
F0.10659714263885704
ssS'SKILLING JEFFREY K'
p283
(dp284
g3
F1111258.0
sg4
F3627.0
sg5
F8682716.0
sg6
F5600000.0
sg7
F6843672.0
sg8
F67581318.0
sg9
F26093672.0
sg10
F2042.0
sg11
F0.008271298593879239
sg12
F19250000.0
sg13
F108.0
sg14
F22122.0
sg15
F30.0
sg16
I01
sg17
F0.000434084461034039
sg18
F29336.0
sg19
S'jeff.skilling@enron.com'
p285
sg21
F88.0
sg22
F0.8148148148148148
ssS'BLAKE JR. NORMAN P'
p286
(dp287
g3
F284087.5425531915
sg4
F2073.860465116279
sg5
F1279.0
sg6
F1201773.0740740742
sg7
F1147424.0917431193
sg8
F8946195.989796128
sg9
F3352073.024
sg10
F1176.4651162790697
sg11
F0.01988203103974163
sg12
F2959559.2574257427
sg13
F608.7906976744187
sg14
F465276.6630434783
sg15
F41.23255813953488
sg16
I00
sg17
F0.000142965792551248
sg18
F1279.0
sg19
Fnan
sg21
F64.8953488372093
sg22
F0.10659714263885704
ssS'SHERRICK JEFFREY B'
p288
(dp289
g3
F284087.5425531915
sg4
F613.0
sg5
F2623421.1774193547
sg6
F1201773.0740740742
sg7
F405999.0
sg8
F7774217.79404662
sg9
F1832468.0
sg10
F583.0
sg11
F0.02936378466557912
sg12
F1426469.0
sg13
F25.0
sg14
F465276.6630434783
sg15
F18.0
sg16
I00
sg17
F0.006970734815250134
sg18
F54192.01063829787
sg19
S'jeffrey.sherrick@enron.com'
p290
sg21
F39.0
sg22
F1.56
ssS'PRENTICE JAMES'
p291
(dp292
g3
F284087.5425531915
sg4
F2073.860465116279
sg5
F564348.0
sg6
F1201773.0740740742
sg7
F208809.0
sg8
F4240288.616627266
sg9
F1095040.0
sg10
F1176.4651162790697
sg11
F0.01988203103974163
sg12
F886231.0
sg13
F608.7906976744187
sg14
F465276.6630434783
sg15
F41.23255813953488
sg16
I00
sg17
F0.012780264632411345
sg18
F54192.01063829787
sg19
S'james.prentice@enron.com'
p293
sg21
F64.8953488372093
sg22
F0.10659714263885704
ssS'GRAY RODNEY'
p294
(dp295
g3
F6615.0
sg4
F2073.860465116279
sg5
F1146658.0
sg6
F1201773.0740740742
sg7
F1147424.0917431193
sg8
F9814102.447242936
sg9
F3352073.024
sg10
F1176.4651162790697
sg11
F0.01988203103974163
sg12
F2959559.2574257427
sg13
F608.7906976744187
sg14
F680833.0
sg15
F41.23255813953488
sg16
I00
sg17
F0.005521850921122386
sg18
F54192.01063829787
sg19
Fnan
sg21
F64.8953488372093
sg22
F0.10659714263885704
ssS'PICKERING MARK R'
p296
(dp297
g3
F655037.0
sg4
F898.0
sg5
F1386690.0
sg6
F300000.0
sg7
F1147424.0917431193
sg8
F3546747.091743119
sg9
F28798.0
sg10
F728.0
sg11
F0.0
sg12
F28798.0
sg13
F67.0
sg14
F465276.6630434783
sg15
F0.0
sg16
I00
sg17
F0.00892451567062356
sg18
F31653.0
sg19
S'mark.pickering@enron.com'
p298
sg21
F7.0
sg22
F0.1044776119402985
ssS'THE TRAVEL AGENCY IN THE PARK'
p299
(dp300
g3
F284087.5425531915
sg4
F2073.860465116279
sg5
F362096.0
sg6
F1201773.0740740742
sg7
F1147424.0917431193
sg8
F9307012.989796128
sg9
F3352073.024
sg10
F1176.4651162790697
sg11
F0.01988203103974163
sg12
F2959559.2574257427
sg13
F608.7906976744187
sg14
F362096.0
sg15
F41.23255813953488
sg16
I00
sg17
F0.005822707102451885
sg18
F54192.01063829787
sg19
Fnan
sg21
F64.8953488372093
sg22
F0.10659714263885704
ssS'NOLES JAMES L'
p301
(dp302
g3
F284087.5425531915
sg4
F2073.860465116279
sg5
F774401.0
sg6
F1201773.0740740742
sg7
F463261.0
sg8
F6051786.874053009
sg9
F368705.0
sg10
F1176.4651162790697
sg11
F0.01988203103974163
sg12
F2959559.2574257427
sg13
F608.7906976744187
sg14
F465276.6630434783
sg15
F41.23255813953488
sg16
I00
sg17
F0.008954712346306463
sg18
F54192.01063829787
sg19
Fnan
sg21
F64.8953488372093
sg22
F0.10659714263885704
ssS'KEAN STEVEN J'
p303
(dp304
g3
F404338.0
sg4
F12754.0
sg5
F1747522.0
sg6
F1000000.0
sg7
F4131594.0
sg8
F15459144.0
sg9
F6153642.0
sg10
F3639.0
sg11
F0.03034342167163243
sg12
F2022048.0
sg13
F6759.0
sg14
F1231.0
sg15
F387.0
sg16
I00
sg17
F0.0027137983836621224
sg18
F41953.0
sg19
S'steven.kean@enron.com'
p305
sg21
F140.0
sg22
F0.020713123243083296
ssS'FOWLER PEGGY'
p306
(dp307
g3
F284087.5425531915
sg4
F517.0
sg5
F2623421.1774193547
sg6
F1201773.0740740742
sg7
F560170.0
sg8
F7878777.79404662
sg9
F1884748.0
sg10
F10.0
sg11
F0.0
sg12
F1324578.0
sg13
F36.0
sg14
F465276.6630434783
sg15
F0.0
sg16
I00
sg17
F0.006878225538895964
sg18
F54192.01063829787
sg19
S'kulvinder.fowler@enron.com'
p308
sg21
F0.0
sg22
F0.0
ssS'WASAFF GEORGE'
p309
(dp310
g3
F259996.0
sg4
F400.0
sg5
F1034395.0
sg6
F325000.0
sg7
F388167.0
sg8
F5732245.0
sg9
F2056427.0
sg10
F337.0
sg11
F0.0175
sg12
F1668260.0
sg13
F30.0
sg14
F1425.0
sg15
F7.0
sg16
I00
sg17
F0.009453889468837753
sg18
F54192.01063829787
sg19
S'george.wasaff@enron.com'
p311
sg21
F22.0
sg22
F0.7333333333333333
ssS'WHITE JR THOMAS E'
p312
(dp313
g3
F317543.0
sg4
F2073.860465116279
sg5
F1934359.0
sg6
F450000.0
sg7
F13847074.0
sg8
F32990148.0
sg9
F15144123.0
sg10
F1176.4651162790697
sg11
F0.01988203103974163
sg12
F1297049.0
sg13
F608.7906976744187
sg14
F1085463.0
sg15
F41.23255813953488
sg16
I00
sg17
F0.002465978630953702
sg18
F81353.0
sg19
S'thomas.white@enron.com'
p314
sg21
F64.8953488372093
sg22
F0.10659714263885704
ssS'CHRISTODOULOU DIOMEDES'
p315
(dp316
g3
F284087.5425531915
sg4
F2073.860465116279
sg5
F2623421.1774193547
sg6
F1201773.0740740742
sg7
F950730.0
sg8
F16265051.79404662
sg9
F6077885.0
sg10
F1176.4651162790697
sg11
F0.01988203103974163
sg12
F5127155.0
sg13
F608.7906976744187
sg14
F465276.6630434783
sg15
F41.23255813953488
sg16
I00
sg17
F0.0033318068288066185
sg18
F54192.01063829787
sg19
S'diomedes.christodoulou@enron.com'
p317
sg21
F64.8953488372093
sg22
F0.10659714263885704
ssS'ALLEN PHILLIP K'
p318
(dp319
g3
F201955.0
sg4
F2902.0
sg5
F4484442.0
sg6
F4175000.0
sg7
F126027.0
sg8
F12446506.0
sg9
F1729541.0
sg10
F1407.0
sg11
F0.022398345968297727
sg12
F1729541.0
sg13
F2195.0
sg14
F152.0
sg15
F65.0
sg16
I00
sg17
F0.001114208276603892
sg18
F13868.0
sg19
S'phillip.allen@enron.com'
p320
sg21
F47.0
sg22
F0.0214123006833713
ssS'SHARP VICTORIA T'
p321
(dp322
g3
F248146.0
sg4
F3136.0
sg5
F1576511.0
sg6
F600000.0
sg7
F213063.0
sg8
F3412929.0
sg9
F494136.0
sg10
F2477.0
sg11
F0.001913265306122449
sg12
F281073.0
sg13
F136.0
sg14
F2401.0
sg15
F6.0
sg16
I00
sg17
F0.03408714333055273
sg18
F116337.0
sg19
S'vicki.sharp@enron.com'
p323
sg21
F24.0
sg22
F0.17647058823529413
ssS'JAEDICKE ROBERT'
p324
(dp325
g3
F284087.5425531915
sg4
F2073.860465116279
sg5
F83750.0
sg6
F1201773.0740740742
sg7
F44093.0
sg8
F2477203.6166272657
sg9
F431750.0
sg10
F1176.4651162790697
sg11
F0.01988203103974163
sg12
F431750.0
sg13
F608.7906976744187
sg14
F465276.6630434783
sg15
F41.23255813953488
sg16
I00
sg17
F0.021876284320979947
sg18
F54192.01063829787
sg19
Fnan
sg21
F64.8953488372093
sg22
F0.10659714263885704
ssS'WINOKUR JR. HERBERT S'
p326
(dp327
g3
F284087.5425531915
sg4
F2073.860465116279
sg5
F84992.0
sg6
F1201773.0740740742
sg7
F1147424.0917431193
sg8
F9029908.989796128
sg9
F3352073.024
sg10
F1176.4651162790697
sg11
F0.01988203103974163
sg12
F2959559.2574257427
sg13
F608.7906976744187
sg14
F465276.6630434783
sg15
F41.23255813953488
sg16
I00
sg17
F0.00015647998242249194
sg18
F1413.0
sg19
Fnan
sg21
F64.8953488372093
sg22
F0.10659714263885704
ssS'BROWN MICHAEL'
p328
(dp329
g3
F284087.5425531915
sg4
F1486.0
sg5
F49288.0
sg6
F1201773.0740740742
sg7
F1147424.0917431193
sg8
F8994204.989796128
sg9
F3352073.024
sg10
F761.0
sg11
F0.0006729475100942127
sg12
F2959559.2574257427
sg13
F41.0
sg14
F465276.6630434783
sg15
F1.0
sg16
I00
sg17
F0.005479972944347715
sg18
F49288.0
sg19
S'michael.brown@enron.com'
p330
sg21
F13.0
sg22
F0.3170731707317073
ssS'BADUM JAMES P'
p331
(dp332
g3
F284087.5425531915
sg4
F2073.860465116279
sg5
F182466.0
sg6
F1201773.0740740742
sg7
F1147424.0917431193
sg8
F3331384.7083703848
sg9
F257817.0
sg10
F1176.4651162790697
sg11
F0.01988203103974163
sg12
F257817.0
sg13
F608.7906976744187
sg14
F465276.6630434783
sg15
F41.23255813953488
sg16
I00
sg17
F0.001046411719199266
sg18
F3486.0
sg19
Fnan
sg21
F64.8953488372093
sg22
F0.10659714263885704
ssS'HUGHES JAMES A'
p333
(dp334
g3
F284087.5425531915
sg4
F719.0
sg5
F2623421.1774193547
sg6
F1201773.0740740742
sg7
F363428.0
sg8
F6346069.79404662
sg9
F1118394.0
sg10
F589.0
sg11
F0.006954102920723227
sg12
F754966.0
sg13
F34.0
sg14
F465276.6630434783
sg15
F5.0
sg16
I00
sg17
F0.008539460232400299
sg18
F54192.01063829787
sg19
S'james.hughes@enron.com'
p335
sg21
F35.0
sg22
F1.0294117647058822
ssS'REYNOLDS LAWRENCE'
p336
(dp337
g3
F76399.0
sg4
F2073.860465116279
sg5
F394475.0
sg6
F100000.0
sg7
F201483.0
sg8
F9154920.0
sg9
F4221891.0
sg10
F1176.4651162790697
sg11
F0.01988203103974163
sg12
F4160672.0
sg13
F608.7906976744187
sg14
F202052.0
sg15
F41.23255813953488
sg16
I00
sg17
F0.0009185224993773839
sg18
F8409.0
sg19
Fnan
sg21
F64.8953488372093
sg22
F0.10659714263885704
ssS'DIMICHELE RICHARD G'
p338
(dp339
g3
F262788.0
sg4
F2073.860465116279
sg5
F2368151.0
sg6
F1000000.0
sg7
F126027.0
sg8
F20266503.0
sg9
F8317782.0
sg10
F1176.4651162790697
sg11
F0.01988203103974163
sg12
F8191755.0
sg13
F608.7906976744187
sg14
F374689.0
sg15
F41.23255813953488
sg16
I00
sg17
F0.001767053743805727
sg18
F35812.0
sg19
S'richard.dimichele@enron.com'
p340
sg21
F64.8953488372093
sg22
F0.10659714263885704
ssS'BHATNAGAR SANJAY'
p341
(dp342
g3
F284087.5425531915
sg4
F523.0
sg5
F15456290.0
sg6
F1201773.0740740742
sg7
F-2604490.0
sg8
F20294223.640627265
sg9
F3352073.024
sg10
F463.0
sg11
F0.0019120458891013384
sg12
F2604490.0
sg13
F29.0
sg14
F137864.0
sg15
F1.0
sg16
I00
sg17
F0.002670317012266002
sg18
F54192.01063829787
sg19
S'sanjay.bhatnagar@enron.com'
p343
sg21
F0.0
sg22
F0.0
ssS'CARTER REBECCA C'
p344
(dp345
g3
F261809.0
sg4
F312.0
sg5
F477557.0
sg6
F300000.0
sg7
F307301.0
sg8
F7658299.281425742
sg9
F3352073.024
sg10
F196.0
sg11
F0.022435897435897436
sg12
F2959559.2574257427
sg13
F15.0
sg14
F540.0
sg15
F7.0
sg16
I00
sg17
F0.007076246128136294
sg18
F54192.01063829787
sg19
S'rebecca.carter@enron.com'
p346
sg21
F29.0
sg22
F1.9333333333333333
ssS'BUCHANAN HAROLD G'
p347
(dp348
g3
F248017.0
sg4
F1088.0
sg5
F1054637.0
sg6
F500000.0
sg7
F189041.0
sg8
F3831664.0
sg9
F1014505.0
sg10
F23.0
sg11
F0.0
sg12
F825464.0
sg13
F125.0
sg14
F1215.0
sg15
F0.0
sg16
I00
sg17
F0.00015658993064110005
sg18
F600.0
sg19
S'john.buchanan@enron.com'
p349
sg21
F0.0
sg22
F0.0
ssS'YEAP SOON'
p350
(dp351
g3
F284087.5425531915
sg4
F2073.860465116279
sg5
F55097.0
sg6
F1201773.0740740742
sg7
F1147424.0917431193
sg8
F3073897.7083703848
sg9
F192758.0
sg10
F1176.4651162790697
sg11
F0.01988203103974163
sg12
F192758.0
sg13
F608.7906976744187
sg14
F465276.6630434783
sg15
F41.23255813953488
sg16
I00
sg17
F0.01792414882576215
sg18
F55097.0
sg19
Fnan
sg21
F64.8953488372093
sg22
F0.10659714263885704
ssS'MURRAY JULIA H'
p352
(dp353
g3
F229284.0
sg4
F2192.0
sg5
F812194.0
sg6
F400000.0
sg7
F196983.0
sg8
F2636400.0
sg9
F597461.0
sg10
F395.0
sg11
F0.0009124087591240876
sg12
F400478.0
sg13
F45.0
sg14
F330.0
sg15
F2.0
sg16
I00
sg17
F0.021840388408435746
sg18
F57580.0
sg19
S'julia.murray@enron.com'
p354
sg21
F11.0
sg22
F0.24444444444444444
ssS'GARLAND C KEVIN'
p355
(dp356
g3
F231946.0
sg4
F209.0
sg5
F1566469.0
sg6
F850000.0
sg7
F259907.0
sg8
F4440721.0
sg9
F896153.0
sg10
F178.0
sg11
F0.1291866028708134
sg12
F636246.0
sg13
F44.0
sg14
F60814.0
sg15
F27.0
sg16
I00
sg17
F0.01090025696277699
sg18
F48405.0
sg19
S'kevin.garland@enron.com'
p357
sg21
F10.0
sg22
F0.22727272727272727
ssS'DODSON KEITH'
p358
(dp359
g3
F221003.0
sg4
F176.0
sg5
F319941.0
sg6
F70000.0
sg7
F1147424.0917431193
sg8
F8070000.3731688615
sg9
F3352073.024
sg10
F114.0
sg11
F0.017045454545454544
sg12
F2959559.2574257427
sg13
F14.0
sg14
F774.0
sg15
F3.0
sg16
I00
sg17
F0.0034899626638977208
sg18
F28164.0
sg19
S'keith.dodson@enron.com'
p360
sg21
F10.0
sg22
F0.7142857142857143
ssS'YEAGER F SCOTT'
p361
(dp362
g3
F158403.0
sg4
F2073.860465116279
sg5
F360300.0
sg6
F1201773.0740740742
sg7
F3576206.0
sg8
F25489992.074074075
sg9
F11884758.0
sg10
F1176.4651162790697
sg11
F0.01988203103974163
sg12
F8308552.0
sg13
F608.7906976744187
sg14
F147950.0
sg15
F41.23255813953488
sg16
I01
sg17
F0.002116399245760049
sg18
F53947.0
sg19
S'scott.yeager@enron.com'
p363
sg21
F64.8953488372093
sg22
F0.10659714263885704
ssS'HIRKO JOSEPH'
p364
(dp365
g3
F284087.5425531915
sg4
F2073.860465116279
sg5
F91093.0
sg6
F1201773.0740740742
sg7
F1147424.0917431193
sg8
F64256505.70837038
sg9
F30766064.0
sg10
F1176.4651162790697
sg11
F0.01988203103974163
sg12
F30766064.0
sg13
F608.7906976744187
sg14
F2856.0
sg15
F41.23255813953488
sg16
I01
sg17
F0.0012135424909954634
sg18
F77978.0
sg19
S'joe.hirko@enron.com'
p366
sg21
F64.8953488372093
sg22
F0.10659714263885704
ssS'DIETRICH JANET R'
p367
(dp368
g3
F250100.0
sg4
F2572.0
sg5
F1410464.0
sg6
F600000.0
sg7
F315068.0
sg8
F5990738.0
sg9
F1865087.0
sg10
F1902.0
sg11
F0.005443234836702955
sg12
F1550019.0
sg13
F63.0
sg14
F473.0
sg15
F14.0
sg16
I00
sg17
F0.0005800620891783282
sg18
F3475.0
sg19
S'janet.dietrich@enron.com'
p369
sg21
F305.0
sg22
F4.841269841269841
ssS'DERRICK JR. JAMES V'
p370
(dp371
g3
F492375.0
sg4
F2181.0
sg5
F550981.0
sg6
F800000.0
sg7
F1787380.0
sg8
F21294562.0
sg9
F8831913.0
sg10
F1401.0
sg11
F0.009170105456212746
sg12
F8831913.0
sg13
F909.0
sg14
F7482.0
sg15
F20.0
sg16
I00
sg17
F0.002400800730252165
sg18
F51124.0
sg19
S'james.derrick@enron.com'
p372
sg21
F64.0
sg22
F0.0704070407040704
ssS'FREVERT MARK A'
p373
(dp374
g3
F1060932.0
sg4
F3275.0
sg5
F17252530.0
sg6
F2000000.0
sg7
F4188667.0
sg8
F49557832.0
sg9
F14622185.0
sg10
F2979.0
sg11
F0.00183206106870229
sg12
F10433518.0
sg13
F21.0
sg14
F7427621.0
sg15
F6.0
sg16
I00
sg17
F0.0017552624174519984
sg18
F86987.0
sg19
S'mark.frevert@enron.com'
p375
sg21
F242.0
sg22
F11.523809523809524
ssS'PAI LOU L'
p376
(dp377
g3
F261879.0
sg4
F2073.860465116279
sg5
F3123383.0
sg6
F1000000.0
sg7
F8453763.0
sg8
F52021122.0
sg9
F23817930.0
sg10
F1176.4651162790697
sg11
F0.01988203103974163
sg12
F15364167.0
sg13
F608.7906976744187
sg14
F1829457.0
sg15
F41.23255813953488
sg16
I00
sg17
F0.0006160382315475625
sg18
F32047.0
sg19
S'lou.pai@enron.com'
p378
sg21
F64.8953488372093
sg22
F0.10659714263885704
ssS'BAY FRANKLIN R'
p379
(dp380
g3
F239671.0
sg4
F2073.860465116279
sg5
F827696.0
sg6
F400000.0
sg7
F145796.0
sg8
F4635736.257425742
sg9
F63014.0
sg10
F1176.4651162790697
sg11
F0.01988203103974163
sg12
F2959559.2574257427
sg13
F608.7906976744187
sg14
F69.0
sg15
F41.23255813953488
sg16
I00
sg17
F0.02785792651450656
sg18
F129142.0
sg19
S'frank.bay@enron.com'
p381
sg21
F64.8953488372093
sg22
F0.10659714263885704
ssS'HAYSLETT RODERICK J'
p382
(dp383
g3
F284087.5425531915
sg4
F2649.0
sg5
F2623421.1774193547
sg6
F1201773.0740740742
sg7
F346663.0
sg8
F7762167.051472362
sg9
F346663.0
sg10
F571.0
sg11
F0.014345035862589657
sg12
F2959559.2574257427
sg13
F1061.0
sg14
F465276.6630434783
sg15
F38.0
sg16
I00
sg17
F0.006981556861497653
sg18
F54192.01063829787
sg19
S'rod.hayslett@enron.com'
p384
sg21
F35.0
sg22
F0.03298774740810556
ssS'FUGH JOHN L'
p385
(dp386
g3
F284087.5425531915
sg4
F2073.860465116279
sg5
F50591.0
sg6
F1201773.0740740742
sg7
F1147424.0917431193
sg8
F3036631.7083703848
sg9
F176378.0
sg10
F1176.4651162790697
sg11
F0.01988203103974163
sg12
F176378.0
sg13
F608.7906976744187
sg14
F465276.6630434783
sg15
F41.23255813953488
sg16
I00
sg17
F0.017846092592960553
sg18
F54192.01063829787
sg19
Fnan
sg21
F64.8953488372093
sg22
F0.10659714263885704
ssS'FALLON JAMES B'
p387
(dp388
g3
F304588.0
sg4
F1755.0
sg5
F3676340.0
sg6
F2500000.0
sg7
F1392142.0
sg8
F11145726.0
sg9
F2332399.0
sg10
F1604.0
sg11
F0.021082621082621083
sg12
F940257.0
sg13
F75.0
sg14
F401481.0
sg15
F37.0
sg16
I00
sg17
F0.008606348298890534
sg18
F95924.0
sg19
S'jim.fallon@enron.com'
p389
sg21
F42.0
sg22
F0.56
ssS'KOENIG MARK E'
p390
(dp391
g3
F309946.0
sg4
F2374.0
sg5
F1587421.0
sg6
F700000.0
sg7
F1248318.0
sg8
F6437477.0
sg9
F1920055.0
sg10
F2271.0
sg11
F0.006318449873631003
sg12
F671737.0
sg13
F61.0
sg14
F150458.0
sg15
F15.0
sg16
I01
sg17
F0.01973086661125158
sg18
F127017.0
sg19
S'mark.koenig@enron.com'
p392
sg21
F53.0
sg22
F0.8688524590163934
ssS'SAVAGE FRANK'
p393
(dp394
g3
F284087.5425531915
sg4
F2073.860465116279
sg5
F3750.0
sg6
F1201773.0740740742
sg7
F1147424.0917431193
sg8
F8948666.989796128
sg9
F3352073.024
sg10
F1176.4651162790697
sg11
F0.01988203103974163
sg12
F2959559.2574257427
sg13
F608.7906976744187
sg14
F465276.6630434783
sg15
F41.23255813953488
sg16
I00
sg17
F0.006055875215838431
sg18
F54192.01063829787
sg19
Fnan
sg21
F64.8953488372093
sg22
F0.10659714263885704
ssS'IZZO LAWRENCE L'
p395
(dp396
g3
F85274.0
sg4
F496.0
sg5
F1979596.0
sg6
F1201773.0740740742
sg7
F3654808.0
sg8
F14906603.074074075
sg9
F5819980.0
sg10
F437.0
sg11
F0.010080645161290322
sg12
F2165172.0
sg13
F19.0
sg14
F1553729.0
sg15
F5.0
sg16
I00
sg17
F0.0018846010630590966
sg18
F28093.0
sg19
S'larry.izzo@enron.com'
p397
sg21
F28.0
sg22
F1.4736842105263157
ssS'TILNEY ELIZABETH A'
p398
(dp399
g3
F247338.0
sg4
F460.0
sg5
F399393.0
sg6
F300000.0
sg7
F576792.0
sg8
F3282815.0
sg9
F1168042.0
sg10
F379.0
sg11
F0.02391304347826087
sg12
F591250.0
sg13
F19.0
sg14
F152055.0
sg15
F11.0
sg16
I00
sg17
F0.016507786956711807
sg18
F54192.01063829787
sg19
S'elizabeth.tilney@enron.com'
p400
sg21
F10.0
sg22
F0.5263157894736842
ssS'MARTIN AMANDA K'
p401
(dp402
g3
F349487.0
sg4
F1522.0
sg5
F8407016.0
sg6
F1201773.0740740742
sg7
F1147424.0917431193
sg8
F15246312.165817194
sg9
F2070306.0
sg10
F477.0
sg11
F0.0
sg12
F2070306.0
sg13
F230.0
sg14
F2818454.0
sg15
F0.0
sg16
I00
sg17
F0.0005385564660291668
sg18
F8211.0
sg19
S'a..martin@enron.com'
p403
sg21
F8.0
sg22
F0.034782608695652174
ssS'BUY RICHARD B'
p404
(dp405
g3
F330546.0
sg4
F3523.0
sg5
F2355702.0
sg6
F900000.0
sg7
F901657.0
sg8
F10475188.0
sg9
F3444470.0
sg10
F2333.0
sg11
F0.02015327845586148
sg12
F2542813.0
sg13
F1053.0
sg14
F400572.0
sg15
F71.0
sg16
I00
sg17
F0.005173368787108916
sg18
F54192.01063829787
sg19
S'rick.buy@enron.com'
p406
sg21
F156.0
sg22
F0.14814814814814814
ssS'GRAMM WENDY L'
p407
(dp408
g3
F284087.5425531915
sg4
F2073.860465116279
sg5
F119292.0
sg6
F1201773.0740740742
sg7
F1147424.0917431193
sg8
F9064208.989796128
sg9
F3352073.024
sg10
F1176.4651162790697
sg11
F0.01988203103974163
sg12
F2959559.2574257427
sg13
F608.7906976744187
sg14
F465276.6630434783
sg15
F41.23255813953488
sg16
I00
sg17
F0.005978680621696119
sg18
F54192.01063829787
sg19
Fnan
sg21
F64.8953488372093
sg22
F0.10659714263885704
ssS'CAUSEY RICHARD A'
p409
(dp410
g3
F415189.0
sg4
F1892.0
sg5
F1868758.0
sg6
F1000000.0
sg7
F2502063.0
sg8
F11247632.257425742
sg9
F2502063.0
sg10
F1585.0
sg11
F0.006342494714587738
sg12
F2959559.2574257427
sg13
F49.0
sg14
F307895.0
sg15
F12.0
sg16
I01
sg17
F0.002727151750516103
sg18
F30674.0
sg19
S'richard.causey@enron.com'
p411
sg21
F58.0
sg22
F1.183673469387755
ssS'TAYLOR MITCHELL S'
p412
(dp413
g3
F265214.0
sg4
F533.0
sg5
F1092663.0
sg6
F600000.0
sg7
F563798.0
sg8
F9447973.0
sg9
F3745048.0
sg10
F300.0
sg11
F0.0
sg12
F3181250.0
sg13
F29.0
sg14
F465276.6630434783
sg15
F0.0
sg16
I00
sg17
F0.00573583462170117
sg18
F54192.01063829787
sg19
S'mitchell.taylor@enron.com'
p414
sg21
F0.0
sg22
F0.0
ssS'DONAHUE JR JEFFREY M'
p415
(dp416
g3
F278601.0
sg4
F865.0
sg5
F875760.0
sg6
F800000.0
sg7
F315068.0
sg8
F4116337.0
sg9
F1080988.0
sg10
F772.0
sg11
F0.012716763005780347
sg12
F765920.0
sg13
F22.0
sg14
F891.0
sg15
F11.0
sg16
I00
sg17
F0.023386812109892848
sg18
F96268.0
sg19
S'jeff.donahue@enron.com'
p417
sg21
F188.0
sg22
F8.545454545454545
ssS'GLISAN JR BEN F'
p418
(dp419
g3
F274975.0
sg4
F873.0
sg5
F1272284.0
sg6
F600000.0
sg7
F393818.0
sg8
F3704351.0
sg9
F778546.0
sg10
F874.0
sg11
F0.006872852233676976
sg12
F384728.0
sg13
F16.0
sg14
F200308.0
sg15
F6.0
sg16
I01
sg17
F0.03400811640149651
sg18
F125978.0
sg19
S'ben.glisan@enron.com'
p420
sg21
F52.0
sg22
F3.25
ss.