(lp0
S'poi'
p1
aS'poi_contact_ratio1'
p2
aS'poi_contact_ratio2'
p3
aS'salary'
p4
aS'to_messages'
p5
aS'total_payments'
p6
aS'bonus'
p7
aS'total_stock_value'
p8
aS'shared_receipt_with_poi'
p9
aS'exercised_stock_options'
p10
aS'from_messages'
p11
aS'other'
p12
aS'from_this_person_to_poi'
p13
aS'expenses'
p14
aS'restricted_stock'
p15
aS'from_poi_to_this_person'
p16
aS'total_worth'
p17
aS'exp/net'
p18
a.